(lp0
F1464267908.0
aF1464267968.0
aF1464268028.0
aF1464268088.0
aF1464268148.0
aF1464268208.0
aF1464268268.0
aF1464268328.0
aF1464268388.0
aF1464268448.0
aF1464268508.0
aF1464268568.0
aF1464268628.0
aF1464268688.0
aF1464268748.0
aF1464268808.0
aF1464268868.0
aF1464268928.0
aF1464268988.0
aF1464269048.0
aF1464269108.0
aF1464269168.0
aF1464269228.0
aF1464269288.0
aF1464269348.0
aF1464269408.0
aF1464269468.0
aF1464269528.0
aF1464269588.0
aF1464269648.0
aF1464269708.0
aF1464269768.0
aF1464269828.0
aF1464269888.0
aF1464269948.0
aF1464270008.0
aF1464270068.0
aF1464270128.0
aF1464270188.0
aF1464270248.0
aF1464270308.0
aF1464270368.0
aF1464270428.0
aF1464270488.0
aF1464270548.0
aF1464270608.0
aF1464270668.0
aF1464270728.0
aF1464270788.0
aF1464270848.0
aF1464270908.0
aF1464270968.0
aF1464271028.0
aF1464271088.0
aF1464271148.0
aF1464271208.0
aF1464271268.0
aF1464271328.0
aF1464271388.0
aF1464271448.0
aF1464271508.0
aF1464271568.0
aF1464271628.0
aF1464271688.0
aF1464271748.0
aF1464271808.0
aF1464271868.0
aF1464271928.0
aF1464271988.0
aF1464272048.0
aF1464272108.0
aF1464272168.0
aF1464272228.0
aF1464272288.0
aF1464272348.0
aF1464272408.0
aF1464272468.0
aF1464272528.0
aF1464272588.0
aF1464272648.0
aF1464272708.0
aF1464272768.0
aF1464272828.0
aF1464272888.0
aF1464272948.0
aF1464273008.0
aF1464273068.0
aF1464273128.0
aF1464273188.0
aF1464273248.0
aF1464273308.0
aF1464273368.0
aF1464273428.0
aF1464273488.0
aF1464273548.0
aF1464273608.0
aF1464273668.0
aF1464273728.0
aF1464273788.0
aF1464273848.0
aF1464273908.0
aF1464273968.0
aF1464274028.0
aF1464274088.0
aF1464274148.0
aF1464274208.0
aF1464274268.0
aF1464274328.0
aF1464274388.0
aF1464274448.0
aF1464274508.0
aF1464274568.0
aF1464274628.0
aF1464274688.0
aF1464274748.0
aF1464274808.0
aF1464274868.0
aF1464274928.0
aF1464274988.0
aF1464275048.0
aF1464275108.0
aF1464275168.0
aF1464275228.0
aF1464275288.0
aF1464275348.0
aF1464275408.0
aF1464275468.0
aF1464275528.0
aF1464275588.0
aF1464275648.0
aF1464275708.0
aF1464275768.0
aF1464275828.0
aF1464275888.0
aF1464275948.0
aF1464276008.0
aF1464276068.0
aF1464276128.0
aF1464276188.0
aF1464276248.0
aF1464276308.0
aF1464276368.0
aF1464276428.0
aF1464276488.0
aF1464276548.0
aF1464276608.0
aF1464276668.0
aF1464276728.0
aF1464276788.0
aF1464276848.0
aF1464276908.0
aF1464276968.0
aF1464277028.0
aF1464277088.0
aF1464277148.0
aF1464277208.0
aF1464277268.0
aF1464277328.0
aF1464277388.0
aF1464277448.0
aF1464277508.0
aF1464277568.0
aF1464277628.0
aF1464277688.0
aF1464277748.0
aF1464277808.0
aF1464277868.0
aF1464277928.0
aF1464277988.0
aF1464278048.0
aF1464278108.0
aF1464278168.0
aF1464278228.0
aF1464278288.0
aF1464278348.0
aF1464278408.0
aF1464278468.0
aF1464278528.0
aF1464278588.0
aF1464278648.0
aF1464278708.0
aF1464278768.0
aF1464278828.0
aF1464278888.0
aF1464278948.0
aF1464279008.0
aF1464279068.0
aF1464279128.0
aF1464279188.0
aF1464279248.0
aF1464279308.0
aF1464279368.0
aF1464279428.0
aF1464279488.0
aF1464279548.0
aF1464279608.0
aF1464279668.0
aF1464279728.0
aF1464279788.0
aF1464279848.0
aF1464279908.0
aF1464279968.0
aF1464280028.0
aF1464280088.0
aF1464280148.0
aF1464280208.0
aF1464280268.0
aF1464280328.0
aF1464280388.0
aF1464280448.0
aF1464280508.0
aF1464280568.0
aF1464280628.0
aF1464280688.0
aF1464280748.0
aF1464280808.0
aF1464280868.0
aF1464280928.0
aF1464280988.0
aF1464281048.0
aF1464281108.0
aF1464281168.0
aF1464281228.0
aF1464281288.0
aF1464281348.0
aF1464281408.0
aF1464281468.0
aF1464281528.0
aF1464281588.0
aF1464281648.0
aF1464281708.0
aF1464281768.0
aF1464281828.0
aF1464281888.0
aF1464281948.0
aF1464282008.0
aF1464282068.0
aF1464282128.0
aF1464282188.0
aF1464282248.0
aF1464282308.0
aF1464282368.0
aF1464282428.0
aF1464282488.0
aF1464282548.0
aF1464282608.0
aF1464282668.0
aF1464282728.0
aF1464282788.0
aF1464282848.0
aF1464282908.0
aF1464282968.0
aF1464283028.0
aF1464283088.0
aF1464283148.0
aF1464283208.0
aF1464283268.0
aF1464283328.0
aF1464283388.0
aF1464283448.0
aF1464283508.0
aF1464283568.0
aF1464283628.0
aF1464283688.0
aF1464283748.0
aF1464283808.0
aF1464283868.0
aF1464283928.0
aF1464283988.0
aF1464284048.0
aF1464284108.0
aF1464284168.0
aF1464284228.0
aF1464284288.0
aF1464284348.0
aF1464284408.0
aF1464284468.0
aF1464284528.0
aF1464284588.0
aF1464284648.0
aF1464284708.0
aF1464284768.0
aF1464284828.0
aF1464284888.0
aF1464284948.0
aF1464285008.0
aF1464285068.0
aF1464285128.0
aF1464285188.0
aF1464285248.0
aF1464285308.0
aF1464285368.0
aF1464285428.0
aF1464285488.0
aF1464285548.0
aF1464285608.0
aF1464285668.0
aF1464285728.0
aF1464285788.0
aF1464285848.0
aF1464285908.0
aF1464285968.0
aF1464286028.0
aF1464286088.0
aF1464286148.0
aF1464286208.0
aF1464286268.0
aF1464286328.0
aF1464286388.0
aF1464286448.0
aF1464286508.0
aF1464286568.0
aF1464286628.0
aF1464286688.0
aF1464286748.0
aF1464286808.0
aF1464286868.0
aF1464286928.0
aF1464286988.0
aF1464287048.0
aF1464287108.0
aF1464287168.0
aF1464287228.0
aF1464287288.0
aF1464287348.0
aF1464287408.0
aF1464287468.0
aF1464287528.0
aF1464287588.0
aF1464287648.0
aF1464287708.0
aF1464287768.0
aF1464287828.0
aF1464287888.0
aF1464287948.0
aF1464288008.0
aF1464288068.0
aF1464288128.0
aF1464288188.0
aF1464288248.0
aF1464288308.0
aF1464288368.0
aF1464288428.0
aF1464288488.0
aF1464288548.0
aF1464288608.0
aF1464288668.0
aF1464288728.0
aF1464288788.0
aF1464288848.0
aF1464288908.0
aF1464288968.0
aF1464289028.0
aF1464289088.0
aF1464289148.0
aF1464289208.0
aF1464289268.0
aF1464289328.0
aF1464289388.0
aF1464289448.0
aF1464289508.0
aF1464289568.0
aF1464289628.0
aF1464289688.0
aF1464289748.0
aF1464289808.0
aF1464289868.0
aF1464289928.0
aF1464289988.0
aF1464290048.0
aF1464290108.0
aF1464290168.0
aF1464290228.0
aF1464290288.0
aF1464290348.0
aF1464290408.0
aF1464290468.0
aF1464290528.0
aF1464290588.0
aF1464290648.0
aF1464290708.0
aF1464290768.0
aF1464290828.0
aF1464290888.0
aF1464290948.0
aF1464291008.0
aF1464291068.0
aF1464291128.0
aF1464291188.0
aF1464291248.0
aF1464291308.0
aF1464291368.0
aF1464291428.0
aF1464291488.0
aF1464291548.0
aF1464291608.0
aF1464291668.0
aF1464291728.0
aF1464291788.0
aF1464291848.0
aF1464291908.0
aF1464291968.0
aF1464292028.0
aF1464292088.0
aF1464292148.0
aF1464292208.0
aF1464292268.0
aF1464292328.0
aF1464292388.0
aF1464292448.0
aF1464292508.0
aF1464292568.0
aF1464292628.0
aF1464292688.0
aF1464292748.0
aF1464292808.0
aF1464292868.0
aF1464292928.0
aF1464292988.0
aF1464293048.0
aF1464293108.0
aF1464293168.0
aF1464293228.0
aF1464293288.0
aF1464293348.0
aF1464293408.0
aF1464293468.0
aF1464293528.0
aF1464293588.0
aF1464293648.0
aF1464293708.0
aF1464293768.0
aF1464293828.0
aF1464293888.0
aF1464293948.0
aF1464294008.0
aF1464294068.0
aF1464294128.0
aF1464294188.0
aF1464294248.0
aF1464294308.0
aF1464294368.0
aF1464294428.0
aF1464294488.0
aF1464294548.0
aF1464294608.0
aF1464294668.0
aF1464294728.0
aF1464294788.0
aF1464294848.0
aF1464294908.0
aF1464294968.0
aF1464295028.0
aF1464295088.0
aF1464295148.0
aF1464295208.0
aF1464295268.0
aF1464295328.0
aF1464295388.0
aF1464295448.0
aF1464295508.0
aF1464295568.0
aF1464295628.0
aF1464295688.0
aF1464295748.0
a.