(lp0
F1464267908.0
aF1464267968.0
aF1464268028.0
aF1464268088.0
aF1464268148.0
aF1464268208.0
aF1464268268.0
aF1464268328.0
aF1464268388.0
aF1464268448.0
aF1464268508.0
aF1464268568.0
aF1464268628.0
aF1464268688.0
aF1464268748.0
aF1464268808.0
aF1464268868.0
aF1464268928.0
aF1464268988.0
aF1464269048.0
aF1464269108.0
aF1464269168.0
aF1464269228.0
aF1464269288.0
aF1464269348.0
aF1464269408.0
aF1464269468.0
aF1464269528.0
aF1464269588.0
aF1464269648.0
aF1464269708.0
aF1464269768.0
aF1464269828.0
aF1464269888.0
aF1464269948.0
aF1464270008.0
aF1464270068.0
aF1464270128.0
aF1464270188.0
aF1464270248.0
aF1464270308.0
aF1464270368.0
aF1464270428.0
aF1464270488.0
aF1464270548.0
aF1464270608.0
aF1464270668.0
aF1464270728.0
aF1464270788.0
aF1464270848.0
aF1464270908.0
aF1464270968.0
aF1464271028.0
aF1464271088.0
aF1464271148.0
aF1464271208.0
aF1464271268.0
aF1464271328.0
aF1464271388.0
aF1464271448.0
aF1464271508.0
aF1464271568.0
aF1464271628.0
aF1464271688.0
aF1464271748.0
aF1464271808.0
aF1464271868.0
aF1464271928.0
aF1464271988.0
aF1464272048.0
aF1464272108.0
aF1464272168.0
aF1464272228.0
aF1464272288.0
aF1464272348.0
aF1464272408.0
aF1464272468.0
aF1464272528.0
aF1464272588.0
aF1464272648.0
aF1464272708.0
aF1464272768.0
aF1464272828.0
aF1464272888.0
aF1464272948.0
aF1464273008.0
aF1464273068.0
aF1464273128.0
aF1464273188.0
aF1464273248.0
aF1464273308.0
aF1464273368.0
aF1464273428.0
aF1464273488.0
aF1464273548.0
aF1464273608.0
aF1464273668.0
aF1464273728.0
aF1464273788.0
aF1464273848.0
aF1464273908.0
aF1464273968.0
aF1464274028.0
aF1464274088.0
aF1464274148.0
aF1464274208.0
aF1464274268.0
aF1464274328.0
aF1464274388.0
aF1464274448.0
aF1464274508.0
aF1464274568.0
aF1464274628.0
aF1464274688.0
aF1464274748.0
aF1464274808.0
aF1464274868.0
aF1464274928.0
aF1464274988.0
aF1464275048.0
aF1464275108.0
aF1464275168.0
aF1464275228.0
aF1464275288.0
aF1464275348.0
aF1464275408.0
aF1464275468.0
aF1464275528.0
aF1464275588.0
aF1464275648.0
aF1464275708.0
aF1464275768.0
aF1464275828.0
aF1464275888.0
aF1464275948.0
aF1464276008.0
aF1464276068.0
aF1464276128.0
aF1464276188.0
aF1464276248.0
aF1464276308.0
aF1464276368.0
aF1464276428.0
aF1464276488.0
aF1464276548.0
aF1464276608.0
aF1464276668.0
aF1464276728.0
aF1464276788.0
aF1464276848.0
aF1464276908.0
aF1464276968.0
aF1464277028.0
aF1464277088.0
aF1464277148.0
aF1464277208.0
aF1464277268.0
aF1464277328.0
aF1464277388.0
aF1464277448.0
aF1464277508.0
aF1464277568.0
aF1464277628.0
aF1464277688.0
aF1464277748.0
aF1464277808.0
aF1464277868.0
aF1464277928.0
aF1464277988.0
aF1464278048.0
aF1464278108.0
aF1464278168.0
aF1464278228.0
aF1464278288.0
aF1464278348.0
aF1464278408.0
aF1464278468.0
aF1464278528.0
aF1464278588.0
aF1464278648.0
aF1464278708.0
aF1464278768.0
aF1464278828.0
aF1464278888.0
aF1464278948.0
aF1464279008.0
aF1464279068.0
aF1464279128.0
aF1464279188.0
aF1464279248.0
aF1464279308.0
aF1464279368.0
aF1464279428.0
aF1464279488.0
aF1464279548.0
aF1464279608.0
aF1464279668.0
aF1464279728.0
aF1464279788.0
aF1464279848.0
aF1464279908.0
aF1464279968.0
aF1464280028.0
aF1464280088.0
aF1464280148.0
aF1464280208.0
aF1464280268.0
a.