(lp0
F1464267908.0
aF1464267968.0
aF1464268028.0
aF1464268088.0
aF1464268148.0
aF1464268208.0
aF1464268268.0
aF1464268328.0
aF1464268388.0
aF1464268448.0
aF1464268508.0
aF1464268568.0
aF1464268628.0
aF1464268688.0
aF1464268748.0
aF1464268808.0
aF1464268868.0
aF1464268928.0
aF1464268988.0
aF1464269048.0
aF1464269108.0
aF1464269168.0
aF1464269228.0
aF1464269288.0
aF1464269348.0
aF1464269408.0
aF1464269468.0
aF1464269528.0
aF1464269588.0
aF1464269648.0
aF1464269708.0
aF1464269768.0
aF1464269828.0
aF1464269888.0
aF1464269948.0
aF1464270008.0
aF1464270068.0
aF1464270128.0
aF1464270188.0
aF1464270248.0
aF1464270308.0
aF1464270368.0
aF1464270428.0
aF1464270488.0
aF1464270548.0
aF1464270608.0
aF1464270668.0
aF1464270728.0
aF1464270788.0
aF1464270848.0
aF1464270908.0
aF1464270968.0
aF1464271028.0
aF1464271088.0
aF1464271148.0
aF1464271208.0
aF1464271268.0
aF1464271328.0
aF1464271388.0
aF1464271448.0
aF1464271508.0
aF1464271568.0
aF1464271628.0
aF1464271688.0
aF1464271748.0
aF1464271808.0
aF1464271868.0
aF1464271928.0
aF1464271988.0
aF1464272048.0
aF1464272108.0
aF1464272168.0
aF1464272228.0
aF1464272288.0
aF1464272348.0
aF1464272408.0
aF1464272468.0
aF1464272528.0
aF1464272588.0
aF1464272648.0
aF1464272708.0
aF1464272768.0
aF1464272828.0
aF1464272888.0
aF1464272948.0
aF1464273008.0
aF1464273068.0
aF1464273128.0
aF1464273188.0
aF1464273248.0
aF1464273308.0
aF1464273368.0
aF1464273428.0
aF1464273488.0
aF1464273548.0
aF1464273608.0
aF1464273668.0
aF1464273728.0
aF1464273788.0
aF1464273848.0
aF1464273908.0
aF1464273968.0
aF1464274028.0
aF1464274088.0
aF1464274148.0
aF1464274208.0
aF1464274268.0
aF1464274328.0
aF1464274388.0
aF1464274448.0
aF1464274508.0
aF1464274568.0
aF1464274628.0
aF1464274688.0
aF1464274748.0
aF1464274808.0
aF1464274868.0
aF1464274928.0
aF1464274988.0
aF1464275048.0
aF1464275108.0
aF1464275168.0
aF1464275228.0
aF1464275288.0
aF1464275348.0
aF1464275408.0
aF1464275468.0
aF1464275528.0
aF1464275588.0
aF1464275648.0
aF1464275708.0
aF1464275768.0
aF1464275828.0
aF1464275888.0
aF1464275948.0
aF1464276008.0
aF1464276068.0
aF1464276128.0
aF1464276188.0
aF1464276248.0
aF1464276308.0
aF1464276368.0
aF1464276428.0
aF1464276488.0
aF1464276548.0
aF1464276608.0
aF1464276668.0
aF1464276728.0
aF1464276788.0
aF1464276848.0
aF1464276908.0
aF1464276968.0
aF1464277028.0
aF1464277088.0
aF1464277148.0
aF1464277208.0
aF1464277268.0
aF1464277328.0
aF1464277388.0
aF1464277448.0
aF1464277508.0
aF1464277568.0
aF1464277628.0
aF1464277688.0
aF1464277748.0
aF1464277808.0
aF1464277868.0
aF1464277928.0
aF1464277988.0
aF1464278048.0
aF1464278108.0
aF1464278168.0
aF1464278228.0
aF1464278288.0
aF1464278348.0
aF1464278408.0
aF1464278468.0
aF1464278528.0
aF1464278588.0
aF1464278648.0
aF1464278708.0
aF1464278768.0
aF1464278828.0
aF1464278888.0
aF1464278948.0
aF1464279008.0
aF1464279068.0
aF1464279128.0
aF1464279188.0
aF1464279248.0
aF1464279308.0
aF1464279368.0
aF1464279428.0
aF1464279488.0
aF1464279548.0
aF1464279608.0
aF1464279668.0
aF1464279728.0
aF1464279788.0
aF1464279848.0
aF1464279908.0
aF1464279968.0
aF1464280028.0
aF1464280088.0
aF1464280148.0
aF1464280208.0
aF1464280268.0
aF1464280328.0
aF1464280388.0
aF1464280448.0
aF1464280508.0
aF1464280568.0
aF1464280628.0
aF1464280688.0
aF1464280748.0
aF1464280808.0
aF1464280868.0
aF1464280928.0
aF1464280988.0
aF1464281048.0
aF1464281108.0
aF1464281168.0
aF1464281228.0
aF1464281288.0
aF1464281348.0
aF1464281408.0
aF1464281468.0
aF1464281528.0
aF1464281588.0
aF1464281648.0
aF1464281708.0
aF1464281768.0
aF1464281828.0
aF1464281888.0
aF1464281948.0
aF1464282008.0
aF1464282068.0
aF1464282128.0
aF1464282188.0
aF1464282248.0
aF1464282308.0
aF1464282368.0
aF1464282428.0
aF1464282488.0
aF1464282548.0
aF1464282608.0
aF1464282668.0
aF1464282728.0
aF1464282788.0
aF1464282848.0
aF1464282908.0
aF1464282968.0
aF1464283028.0
aF1464283088.0
aF1464283148.0
aF1464283208.0
aF1464283268.0
aF1464283328.0
aF1464283388.0
aF1464283448.0
aF1464283508.0
aF1464283568.0
aF1464283628.0
aF1464283688.0
aF1464283748.0
aF1464283808.0
aF1464283868.0
aF1464283928.0
aF1464283988.0
aF1464284048.0
aF1464284108.0
aF1464284168.0
aF1464284228.0
aF1464284288.0
aF1464284348.0
aF1464284408.0
aF1464284468.0
aF1464284528.0
aF1464284588.0
aF1464284648.0
aF1464284708.0
aF1464284768.0
aF1464284828.0
aF1464284888.0
aF1464284948.0
aF1464285008.0
aF1464285068.0
aF1464285128.0
aF1464285188.0
aF1464285248.0
aF1464285308.0
aF1464285368.0
aF1464285428.0
aF1464285488.0
aF1464285548.0
aF1464285608.0
aF1464285668.0
aF1464285728.0
aF1464285788.0
aF1464285848.0
aF1464285908.0
aF1464285968.0
aF1464286028.0
aF1464286088.0
aF1464286148.0
aF1464286208.0
aF1464286268.0
aF1464286328.0
aF1464286388.0
aF1464286448.0
aF1464286508.0
aF1464286568.0
aF1464286628.0
aF1464286688.0
aF1464286748.0
aF1464286808.0
aF1464286868.0
aF1464286928.0
aF1464286988.0
aF1464287048.0
aF1464287108.0
aF1464287168.0
aF1464287228.0
aF1464287288.0
aF1464287348.0
aF1464287408.0
aF1464287468.0
aF1464287528.0
aF1464287588.0
aF1464287648.0
aF1464287708.0
aF1464287768.0
aF1464287828.0
aF1464287888.0
aF1464287948.0
aF1464288008.0
aF1464288068.0
aF1464288128.0
aF1464288188.0
aF1464288248.0
aF1464288308.0
aF1464288368.0
aF1464288428.0
aF1464288488.0
aF1464288548.0
aF1464288608.0
aF1464288668.0
aF1464288728.0
aF1464288788.0
aF1464288848.0
aF1464288908.0
aF1464288968.0
aF1464289028.0
aF1464289088.0
aF1464289148.0
aF1464289208.0
aF1464289268.0
aF1464289328.0
aF1464289388.0
aF1464289448.0
aF1464289508.0
aF1464289568.0
aF1464289628.0
aF1464289688.0
aF1464289748.0
aF1464289808.0
aF1464289868.0
aF1464289928.0
aF1464289988.0
aF1464290048.0
aF1464290108.0
aF1464290168.0
aF1464290228.0
aF1464290288.0
aF1464290348.0
aF1464290408.0
aF1464290468.0
aF1464290528.0
aF1464290588.0
aF1464290648.0
aF1464290708.0
aF1464290768.0
aF1464290828.0
aF1464290888.0
aF1464290948.0
aF1464291008.0
aF1464291068.0
aF1464291128.0
aF1464291188.0
aF1464291248.0
aF1464291308.0
aF1464291368.0
aF1464291428.0
aF1464291488.0
aF1464291548.0
aF1464291608.0
aF1464291668.0
aF1464291728.0
aF1464291788.0
aF1464291848.0
aF1464291908.0
aF1464291968.0
aF1464292028.0
aF1464292088.0
aF1464292148.0
aF1464292208.0
aF1464292268.0
aF1464292328.0
aF1464292388.0
aF1464292448.0
aF1464292508.0
aF1464292568.0
aF1464292628.0
aF1464292688.0
aF1464292748.0
aF1464292808.0
aF1464292868.0
aF1464292928.0
aF1464292988.0
aF1464293048.0
aF1464293108.0
aF1464293168.0
aF1464293228.0
aF1464293288.0
aF1464293348.0
aF1464293408.0
aF1464293468.0
aF1464293528.0
aF1464293588.0
aF1464293648.0
aF1464293708.0
aF1464293768.0
aF1464293828.0
aF1464293888.0
aF1464293948.0
aF1464294008.0
aF1464294068.0
aF1464294128.0
aF1464294188.0
aF1464294248.0
aF1464294308.0
aF1464294368.0
aF1464294428.0
aF1464294488.0
aF1464294548.0
aF1464294608.0
aF1464294668.0
aF1464294728.0
aF1464294788.0
aF1464294848.0
aF1464294908.0
aF1464294968.0
aF1464295028.0
aF1464295088.0
aF1464295148.0
aF1464295208.0
aF1464295268.0
aF1464295328.0
aF1464295388.0
aF1464295448.0
aF1464295508.0
aF1464295568.0
aF1464295628.0
aF1464295688.0
aF1464295748.0
aF1464295808.0
aF1464295868.0
aF1464295928.0
aF1464295988.0
aF1464296048.0
aF1464296108.0
aF1464296168.0
aF1464296228.0
aF1464296288.0
aF1464296348.0
aF1464296408.0
aF1464296468.0
aF1464296528.0
aF1464296588.0
aF1464296648.0
aF1464296708.0
aF1464296768.0
aF1464296828.0
aF1464296888.0
aF1464296948.0
aF1464297008.0
aF1464297068.0
aF1464297128.0
aF1464297188.0
aF1464297248.0
aF1464297308.0
aF1464297368.0
aF1464297428.0
aF1464297488.0
aF1464297548.0
aF1464297608.0
aF1464297668.0
aF1464297728.0
aF1464297788.0
aF1464297848.0
aF1464297908.0
aF1464297968.0
aF1464298028.0
aF1464298088.0
aF1464298148.0
aF1464298208.0
aF1464298268.0
aF1464298328.0
aF1464298388.0
aF1464298448.0
aF1464298508.0
aF1464298568.0
aF1464298628.0
aF1464298688.0
aF1464298748.0
aF1464298808.0
aF1464298868.0
aF1464298928.0
aF1464298988.0
aF1464299048.0
aF1464299108.0
aF1464299168.0
aF1464299228.0
aF1464299288.0
aF1464299348.0
aF1464299408.0
aF1464299468.0
aF1464299528.0
aF1464299588.0
aF1464299648.0
aF1464299708.0
aF1464299768.0
aF1464299828.0
aF1464299888.0
aF1464299948.0
aF1464300008.0
aF1464300068.0
aF1464300128.0
aF1464300188.0
aF1464300248.0
aF1464300308.0
aF1464300368.0
aF1464300428.0
aF1464300488.0
aF1464300548.0
aF1464300608.0
aF1464300668.0
aF1464300728.0
aF1464300788.0
aF1464300848.0
aF1464300908.0
aF1464300968.0
aF1464301028.0
aF1464301088.0
aF1464301148.0
aF1464301208.0
aF1464301268.0
aF1464301328.0
aF1464301388.0
aF1464301448.0
aF1464301508.0
aF1464301568.0
aF1464301628.0
aF1464301688.0
aF1464301748.0
aF1464301808.0
aF1464301868.0
aF1464301928.0
aF1464301988.0
aF1464302048.0
aF1464302108.0
aF1464302168.0
aF1464302228.0
aF1464302288.0
aF1464302348.0
aF1464302408.0
aF1464302468.0
aF1464302528.0
aF1464302588.0
aF1464302648.0
aF1464302708.0
aF1464302768.0
aF1464302828.0
aF1464302888.0
aF1464302948.0
aF1464303008.0
aF1464303068.0
aF1464303128.0
aF1464303188.0
aF1464303248.0
aF1464303308.0
aF1464303368.0
aF1464303428.0
aF1464303488.0
aF1464303548.0
aF1464303608.0
aF1464303668.0
aF1464303728.0
aF1464303788.0
aF1464303848.0
aF1464303908.0
aF1464303968.0
aF1464304028.0
aF1464304088.0
aF1464304148.0
aF1464304208.0
aF1464304268.0
aF1464304328.0
aF1464304388.0
aF1464304448.0
aF1464304508.0
aF1464304568.0
aF1464304628.0
aF1464304688.0
aF1464304748.0
aF1464304808.0
aF1464304868.0
aF1464304928.0
aF1464304988.0
aF1464305048.0
aF1464305108.0
aF1464305168.0
aF1464305228.0
aF1464305288.0
aF1464305348.0
aF1464305408.0
aF1464305468.0
aF1464305528.0
aF1464305588.0
aF1464305648.0
aF1464305708.0
aF1464305768.0
aF1464305828.0
aF1464305888.0
aF1464305948.0
aF1464306008.0
aF1464306068.0
aF1464306128.0
aF1464306188.0
aF1464306248.0
aF1464306308.0
aF1464306368.0
aF1464306428.0
aF1464306488.0
aF1464306548.0
aF1464306608.0
aF1464306668.0
aF1464306728.0
aF1464306788.0
aF1464306848.0
aF1464306908.0
aF1464306968.0
aF1464307028.0
aF1464307088.0
aF1464307148.0
aF1464307208.0
aF1464307268.0
aF1464307328.0
aF1464307388.0
aF1464307448.0
aF1464307508.0
aF1464307568.0
aF1464307628.0
aF1464307688.0
aF1464307748.0
aF1464307808.0
aF1464307868.0
aF1464307928.0
aF1464307988.0
aF1464308048.0
aF1464308108.0
aF1464308168.0
aF1464308228.0
aF1464308288.0
aF1464308348.0
aF1464308408.0
aF1464308468.0
aF1464308528.0
aF1464308588.0
aF1464308648.0
aF1464308708.0
aF1464308768.0
aF1464308828.0
aF1464308888.0
aF1464308948.0
aF1464309008.0
aF1464309068.0
aF1464309128.0
aF1464309188.0
aF1464309248.0
aF1464309308.0
aF1464309368.0
aF1464309428.0
aF1464309488.0
aF1464309548.0
aF1464309608.0
aF1464309668.0
aF1464309728.0
aF1464309788.0
aF1464309848.0
aF1464309908.0
aF1464309968.0
aF1464310028.0
aF1464310088.0
aF1464310148.0
aF1464310208.0
aF1464310268.0
aF1464310328.0
aF1464310388.0
aF1464310448.0
aF1464310508.0
aF1464310568.0
aF1464310628.0
aF1464310688.0
aF1464310748.0
aF1464310808.0
aF1464310868.0
aF1464310928.0
aF1464310988.0
aF1464311048.0
aF1464311108.0
aF1464311168.0
aF1464311228.0
aF1464311288.0
aF1464311348.0
aF1464311408.0
aF1464311468.0
aF1464311528.0
aF1464311588.0
aF1464311648.0
aF1464311708.0
aF1464311768.0
aF1464311828.0
aF1464311888.0
aF1464311948.0
aF1464312008.0
aF1464312068.0
aF1464312128.0
aF1464312188.0
aF1464312248.0
aF1464312308.0
aF1464312368.0
aF1464312428.0
aF1464312488.0
aF1464312548.0
aF1464312608.0
aF1464312668.0
aF1464312728.0
aF1464312788.0
aF1464312848.0
aF1464312908.0
aF1464312968.0
aF1464313028.0
aF1464313088.0
aF1464313148.0
aF1464313208.0
aF1464313268.0
aF1464313328.0
aF1464313388.0
aF1464313448.0
aF1464313508.0
aF1464313568.0
aF1464313628.0
aF1464313688.0
aF1464313748.0
aF1464313808.0
aF1464313868.0
aF1464313928.0
aF1464313988.0
aF1464314048.0
aF1464314108.0
aF1464314168.0
aF1464314228.0
aF1464314288.0
aF1464314348.0
aF1464314408.0
aF1464314468.0
aF1464314528.0
aF1464314588.0
aF1464314648.0
aF1464314708.0
aF1464314768.0
aF1464314828.0
aF1464314888.0
aF1464314948.0
aF1464315008.0
aF1464315068.0
aF1464315128.0
aF1464315188.0
aF1464315248.0
aF1464315308.0
aF1464315368.0
aF1464315428.0
aF1464315488.0
aF1464315548.0
aF1464315608.0
aF1464315668.0
aF1464315728.0
aF1464315788.0
aF1464315848.0
aF1464315908.0
aF1464315968.0
aF1464316028.0
aF1464316088.0
aF1464316148.0
aF1464316208.0
aF1464316268.0
aF1464316328.0
aF1464316388.0
aF1464316448.0
aF1464316508.0
aF1464316568.0
aF1464316628.0
aF1464316688.0
aF1464316748.0
aF1464316808.0
aF1464316868.0
aF1464316928.0
aF1464316988.0
aF1464317048.0
aF1464317108.0
aF1464317168.0
aF1464317228.0
aF1464317288.0
aF1464317348.0
aF1464317408.0
aF1464317468.0
aF1464317528.0
aF1464317588.0
aF1464317648.0
aF1464317708.0
aF1464317768.0
aF1464317828.0
aF1464317888.0
aF1464317948.0
aF1464318008.0
aF1464318068.0
aF1464318128.0
aF1464318188.0
aF1464318248.0
aF1464318308.0
aF1464318368.0
aF1464318428.0
aF1464318488.0
aF1464318548.0
aF1464318608.0
aF1464318668.0
aF1464318728.0
aF1464318788.0
aF1464318848.0
aF1464318908.0
aF1464318968.0
aF1464319028.0
aF1464319088.0
aF1464319148.0
aF1464319208.0
aF1464319268.0
aF1464319328.0
aF1464319388.0
aF1464319448.0
aF1464319508.0
aF1464319568.0
aF1464319628.0
aF1464319688.0
aF1464319748.0
aF1464319808.0
aF1464319868.0
aF1464319928.0
aF1464319988.0
aF1464320048.0
aF1464320108.0
aF1464320168.0
aF1464320228.0
aF1464320288.0
aF1464320348.0
aF1464320408.0
aF1464320468.0
aF1464320528.0
aF1464320588.0
aF1464320648.0
aF1464320708.0
aF1464320768.0
aF1464320828.0
aF1464320888.0
aF1464320948.0
aF1464321008.0
aF1464321068.0
aF1464321128.0
aF1464321188.0
aF1464321248.0
aF1464321308.0
aF1464321368.0
aF1464321428.0
aF1464321488.0
aF1464321548.0
aF1464321608.0
aF1464321668.0
aF1464321728.0
aF1464321788.0
aF1464321848.0
aF1464321908.0
aF1464321968.0
aF1464322028.0
aF1464322088.0
aF1464322148.0
aF1464322208.0
aF1464322268.0
aF1464322328.0
aF1464322388.0
aF1464322448.0
aF1464322508.0
aF1464322568.0
aF1464322628.0
aF1464322688.0
aF1464322748.0
aF1464322808.0
aF1464322868.0
aF1464322928.0
aF1464322988.0
aF1464323048.0
aF1464323108.0
aF1464323168.0
aF1464323228.0
aF1464323288.0
aF1464323348.0
aF1464323408.0
aF1464323468.0
aF1464323528.0
aF1464323588.0
aF1464323648.0
aF1464323708.0
aF1464323768.0
aF1464323828.0
aF1464323888.0
aF1464323948.0
aF1464324008.0
aF1464324068.0
aF1464324128.0
aF1464324188.0
aF1464324248.0
aF1464324308.0
aF1464324368.0
aF1464324428.0
aF1464324488.0
aF1464324548.0
aF1464324608.0
aF1464324668.0
aF1464324728.0
aF1464324788.0
aF1464324848.0
aF1464324908.0
aF1464324968.0
aF1464325028.0
aF1464325088.0
aF1464325148.0
aF1464325208.0
aF1464325268.0
aF1464325328.0
aF1464325388.0
aF1464325448.0
aF1464325508.0
aF1464325568.0
aF1464325628.0
aF1464325688.0
aF1464325748.0
aF1464325808.0
aF1464325868.0
aF1464325928.0
aF1464325988.0
aF1464326048.0
aF1464326108.0
aF1464326168.0
aF1464326228.0
aF1464326288.0
aF1464326348.0
aF1464326408.0
aF1464326468.0
aF1464326528.0
aF1464326588.0
aF1464326648.0
aF1464326708.0
aF1464326768.0
aF1464326828.0
aF1464326888.0
aF1464326948.0
aF1464327008.0
aF1464327068.0
aF1464327128.0
aF1464327188.0
aF1464327248.0
aF1464327308.0
aF1464327368.0
aF1464327428.0
aF1464327488.0
aF1464327548.0
aF1464327608.0
aF1464327668.0
aF1464327728.0
aF1464327788.0
aF1464327848.0
aF1464327908.0
aF1464327968.0
aF1464328028.0
aF1464328088.0
aF1464328148.0
aF1464328208.0
aF1464328268.0
aF1464328328.0
aF1464328388.0
aF1464328448.0
aF1464328508.0
aF1464328568.0
aF1464328628.0
aF1464328688.0
aF1464328748.0
aF1464328808.0
aF1464328868.0
aF1464328928.0
aF1464328988.0
aF1464329048.0
aF1464329108.0
aF1464329168.0
aF1464329228.0
aF1464329288.0
aF1464329348.0
aF1464329408.0
aF1464329468.0
aF1464329528.0
aF1464329588.0
aF1464329648.0
aF1464329708.0
aF1464329768.0
aF1464329828.0
aF1464329888.0
aF1464329948.0
aF1464330008.0
aF1464330068.0
aF1464330128.0
aF1464330188.0
aF1464330248.0
aF1464330308.0
aF1464330368.0
aF1464330428.0
aF1464330488.0
aF1464330548.0
aF1464330608.0
aF1464330668.0
aF1464330728.0
aF1464330788.0
aF1464330848.0
aF1464330908.0
aF1464330968.0
aF1464331028.0
aF1464331088.0
aF1464331148.0
aF1464331208.0
a.